00010074 <register_fini>:
	10074:		ffff0797		auipc x15 0xffff0
	10078:		f8c78793		addi x15 x15 -116
	1007c:		00078863		beq x15 x0 16
	10080:		00000517		auipc x10 0x0
	10084:		1f050513		addi x10 x10 496
	10088:		1a00006f		jal x0 416 <atexit>
	1008c:		00008067		jalr x0 x1 0

00010090 <_start>:
	10090:		00002197		auipc x3 0x2
	10094:		dd818193		addi x3 x3 -552
	10098:		c3418513		addi x10 x3 -972
	1009c:		c5018613		addi x12 x3 -944
	100a0:		40a60633		sub x12 x12 x10
	100a4:		00000593		addi x11 x0 0
	100a8:		2bc000ef		jal x1 700 <memset>
	100ac:		00000517		auipc x10 0x0
	100b0:		1c450513		addi x10 x10 452
	100b4:		174000ef		jal x1 372 <atexit>
	100b8:		218000ef		jal x1 536 <__libc_init_array>
	100bc:		00012503		lw x10 0 x2
	100c0:		00410593		addi x11 x2 4
	100c4:		00000613		addi x12 x0 0
	100c8:		0fc000ef		jal x1 252 <main>
	100cc:		1700006f		jal x0 368 <exit>

000100d0 <__do_global_dtors_aux>:
	100d0:		c341c783		lbu x15 -972 x3
	100d4:		04079463		bne x15 x0 72
	100d8:		ffff0797		auipc x15 0xffff0
	100dc:		f2878793		addi x15 x15 -216
	100e0:		02078863		beq x15 x0 48
	100e4:		ff010113		addi x2 x2 -16
	100e8:		00001517		auipc x10 0x1
	100ec:		57050513		addi x10 x10 1392
	100f0:		00112623		sw x1 12 x2
	100f4:		00000097		auipc x1 0x0
	100f8:		000000e7		jalr x1 x0 0
	100fc:		00c12083		lw x1 12 x2
	10100:		00100793		addi x15 x0 1
	10104:		c2f18a23		sb x15 -972 x3
	10108:		01010113		addi x2 x2 16
	1010c:		00008067		jalr x0 x1 0
	10110:		00100793		addi x15 x0 1
	10114:		c2f18a23		sb x15 -972 x3
	10118:		00008067		jalr x0 x1 0
	1011c:		00008067		jalr x0 x1 0

00010120 <frame_dummy>:
	10120:		ffff0797		auipc x15 0xffff0
	10124:		ee078793		addi x15 x15 -288
	10128:		00078c63		beq x15 x0 24
	1012c:		c3818593		addi x11 x3 -968
	10130:		00001517		auipc x10 0x1
	10134:		52850513		addi x10 x10 1320
	10138:		00000317		auipc x6 0x0
	1013c:		00000067		jalr x0 x0 0
	10140:		00008067		jalr x0 x1 0
	10144:		00100137		lui x2 0x100
	10148:		07c000ef		jal x1 124 <main>
	1014c:		00050593		addi x11 x10 0
	10150:		00a00893		addi x17 x0 10
	10154:		00000073		ecall

00010158 <sum_arr>:
	10158:		fd010113		addi x2 x2 -48
	1015c:		02812623		sw x8 44 x2
	10160:		03010413		addi x8 x2 48
	10164:		fca42e23		sw x10 -36 x8
	10168:		fcb42c23		sw x11 -40 x8
	1016c:		fe042623		sw x0 -20 x8
	10170:		fe042423		sw x0 -24 x8
	10174:		0300006f		jal x0 48
	10178:		fe842783		lw x15 -24 x8
	1017c:		00279793		slli x15 x15 2
	10180:		fdc42703		lw x14 -36 x8
	10184:		00f707b3		add x15 x14 x15
	10188:		0007a783		lw x15 0 x15
	1018c:		fec42703		lw x14 -20 x8
	10190:		00f707b3		add x15 x14 x15
	10194:		fef42623		sw x15 -20 x8
	10198:		fe842783		lw x15 -24 x8
	1019c:		00178793		addi x15 x15 1
	101a0:		fef42423		sw x15 -24 x8
	101a4:		fe842703		lw x14 -24 x8
	101a8:		fd842783		lw x15 -40 x8
	101ac:		fcf746e3		blt x14 x15 -52
	101b0:		fec42783		lw x15 -20 x8
	101b4:		00078513		addi x10 x15 0
	101b8:		02c12403		lw x8 44 x2
	101bc:		03010113		addi x2 x2 48
	101c0:		00008067		jalr x0 x1 0

000101c4 <main>:
	101c4:		fd010113		addi x2 x2 -48
	101c8:		02112623		sw x1 44 x2
	101cc:		02812423		sw x8 40 x2
	101d0:		03010413		addi x8 x2 48
	101d4:		000107b7		lui x15 0x10
	101d8:		64878793		addi x15 x15 1608
	101dc:		0007a603		lw x12 0 x15
	101e0:		0047a683		lw x13 4 x15
	101e4:		0087a703		lw x14 8 x15
	101e8:		00c7a783		lw x15 12 x15
	101ec:		fcc42e23		sw x12 -36 x8
	101f0:		fed42023		sw x13 -32 x8
	101f4:		fee42223		sw x14 -28 x8
	101f8:		fef42423		sw x15 -24 x8
	101fc:		fdc40793		addi x15 x8 -36
	10200:		00400593		addi x11 x0 4
	10204:		00078513		addi x10 x15 0
	10208:		f51ff0ef		jal x1 -176 <sum_arr>
	1020c:		fea42623		sw x10 -20 x8
	10210:		00000793		addi x15 x0 0
	10214:		00078513		addi x10 x15 0
	10218:		02c12083		lw x1 44 x2
	1021c:		02812403		lw x8 40 x2
	10220:		03010113		addi x2 x2 48
	10224:		00008067		jalr x0 x1 0

00010228 <atexit>:
	10228:		00050593		addi x11 x10 0
	1022c:		00000693		addi x13 x0 0
	10230:		00000613		addi x12 x0 0
	10234:		00000513		addi x10 x0 0
	10238:		2080006f		jal x0 520 <__register_exitproc>

0001023c <exit>:
	1023c:		ff010113		addi x2 x2 -16
	10240:		00000593		addi x11 x0 0
	10244:		00812423		sw x8 8 x2
	10248:		00112623		sw x1 12 x2
	1024c:		00050413		addi x8 x10 0
	10250:		28c000ef		jal x1 652 <__call_exitprocs>
	10254:		c2818793		addi x15 x3 -984
	10258:		0007a503		lw x10 0 x15
	1025c:		03c52783		lw x15 60 x10
	10260:		00078463		beq x15 x0 8
	10264:		000780e7		jalr x1 x15 0
	10268:		00040513		addi x10 x8 0
	1026c:		38c000ef		jal x1 908 <_exit>

00010270 <__libc_fini_array>:
	10270:		ff010113		addi x2 x2 -16
	10274:		00812423		sw x8 8 x2
	10278:		00001797		auipc x15 0x1
	1027c:		3ec78793		addi x15 x15 1004
	10280:		00001417		auipc x8 0x1
	10284:		3e840413		addi x8 x8 1000
	10288:		40f40433		sub x8 x8 x15
	1028c:		00112623		sw x1 12 x2
	10290:		00912223		sw x9 4 x2
	10294:		40245413		srai x8 x8 2
	10298:		02040263		beq x8 x0 36
	1029c:		00241493		slli x9 x8 2
	102a0:		ffc48493		addi x9 x9 -4
	102a4:		00f484b3		add x9 x9 x15
	102a8:		0004a783		lw x15 0 x9
	102ac:		fff40413		addi x8 x8 -1
	102b0:		ffc48493		addi x9 x9 -4
	102b4:		000780e7		jalr x1 x15 0
	102b8:		fe0418e3		bne x8 x0 -16
	102bc:		00c12083		lw x1 12 x2
	102c0:		00812403		lw x8 8 x2
	102c4:		00412483		lw x9 4 x2
	102c8:		01010113		addi x2 x2 16
	102cc:		00008067		jalr x0 x1 0

000102d0 <__libc_init_array>:
	102d0:		ff010113		addi x2 x2 -16
	102d4:		00812423		sw x8 8 x2
	102d8:		01212023		sw x18 0 x2
	102dc:		00001417		auipc x8 0x1
	102e0:		38040413		addi x8 x8 896
	102e4:		00001917		auipc x18 0x1
	102e8:		37890913		addi x18 x18 888
	102ec:		40890933		sub x18 x18 x8
	102f0:		00112623		sw x1 12 x2
	102f4:		00912223		sw x9 4 x2
	102f8:		40295913		srai x18 x18 2
	102fc:		00090e63		beq x18 x0 28
	10300:		00000493		addi x9 x0 0
	10304:		00042783		lw x15 0 x8
	10308:		00148493		addi x9 x9 1
	1030c:		00440413		addi x8 x8 4
	10310:		000780e7		jalr x1 x15 0
	10314:		fe9918e3		bne x18 x9 -16
	10318:		00001417		auipc x8 0x1
	1031c:		34440413		addi x8 x8 836
	10320:		00001917		auipc x18 0x1
	10324:		34490913		addi x18 x18 836
	10328:		40890933		sub x18 x18 x8
	1032c:		40295913		srai x18 x18 2
	10330:		00090e63		beq x18 x0 28
	10334:		00000493		addi x9 x0 0
	10338:		00042783		lw x15 0 x8
	1033c:		00148493		addi x9 x9 1
	10340:		00440413		addi x8 x8 4
	10344:		000780e7		jalr x1 x15 0
	10348:		fe9918e3		bne x18 x9 -16
	1034c:		00c12083		lw x1 12 x2
	10350:		00812403		lw x8 8 x2
	10354:		00412483		lw x9 4 x2
	10358:		00012903		lw x18 0 x2
	1035c:		01010113		addi x2 x2 16
	10360:		00008067		jalr x0 x1 0

00010364 <memset>:
	10364:		00f00313		addi x6 x0 15
	10368:		00050713		addi x14 x10 0
	1036c:		02c37e63		bgeu x6 x12 60
	10370:		00f77793		andi x15 x14 15
	10374:		0a079063		bne x15 x0 160
	10378:		08059263		bne x11 x0 132
	1037c:		ff067693		andi x13 x12 -16
	10380:		00f67613		andi x12 x12 15
	10384:		00e686b3		add x13 x13 x14
	10388:		00b72023		sw x11 0 x14
	1038c:		00b72223		sw x11 4 x14
	10390:		00b72423		sw x11 8 x14
	10394:		00b72623		sw x11 12 x14
	10398:		01070713		addi x14 x14 16
	1039c:		fed766e3		bltu x14 x13 -20
	103a0:		00061463		bne x12 x0 8
	103a4:		00008067		jalr x0 x1 0
	103a8:		40c306b3		sub x13 x6 x12
	103ac:		00269693		slli x13 x13 2
	103b0:		00000297		auipc x5 0x0
	103b4:		005686b3		add x13 x13 x5
	103b8:		00c68067		jalr x0 x13 12
	103bc:		00b70723		sb x11 14 x14
	103c0:		00b706a3		sb x11 13 x14
	103c4:		00b70623		sb x11 12 x14
	103c8:		00b705a3		sb x11 11 x14
	103cc:		00b70523		sb x11 10 x14
	103d0:		00b704a3		sb x11 9 x14
	103d4:		00b70423		sb x11 8 x14
	103d8:		00b703a3		sb x11 7 x14
	103dc:		00b70323		sb x11 6 x14
	103e0:		00b702a3		sb x11 5 x14
	103e4:		00b70223		sb x11 4 x14
	103e8:		00b701a3		sb x11 3 x14
	103ec:		00b70123		sb x11 2 x14
	103f0:		00b700a3		sb x11 1 x14
	103f4:		00b70023		sb x11 0 x14
	103f8:		00008067		jalr x0 x1 0
	103fc:		0ff5f593		andi x11 x11 255
	10400:		00859693		slli x13 x11 8
	10404:		00d5e5b3		or x11 x11 x13
	10408:		01059693		slli x13 x11 16
	1040c:		00d5e5b3		or x11 x11 x13
	10410:		f6dff06f		jal x0 -148
	10414:		00279693		slli x13 x15 2
	10418:		00000297		auipc x5 0x0
	1041c:		005686b3		add x13 x13 x5
	10420:		00008293		addi x5 x1 0
	10424:		fa0680e7		jalr x1 x13 -96
	10428:		00028093		addi x1 x5 0
	1042c:		ff078793		addi x15 x15 -16
	10430:		40f70733		sub x14 x14 x15
	10434:		00f60633		add x12 x12 x15
	10438:		f6c378e3		bgeu x6 x12 -144
	1043c:		f3dff06f		jal x0 -196

00010440 <__register_exitproc>:
	10440:		c2818793		addi x15 x3 -984
	10444:		0007a703		lw x14 0 x15
	10448:		14872783		lw x15 328 x14
	1044c:		04078c63		beq x15 x0 88
	10450:		0047a703		lw x14 4 x15
	10454:		01f00813		addi x16 x0 31
	10458:		06e84e63		blt x16 x14 124
	1045c:		00271813		slli x16 x14 2
	10460:		02050663		beq x10 x0 44
	10464:		01078333		add x6 x15 x16
	10468:		08c32423		sw x12 136 x6
	1046c:		1887a883		lw x17 392 x15
	10470:		00100613		addi x12 x0 1
	10474:		00e61633		sll x12 x12 x14
	10478:		00c8e8b3		or x17 x17 x12
	1047c:		1917a423		sw x17 392 x15
	10480:		10d32423		sw x13 264 x6
	10484:		00200693		addi x13 x0 2
	10488:		02d50463		beq x10 x13 40
	1048c:		00170713		addi x14 x14 1
	10490:		00e7a223		sw x14 4 x15
	10494:		010787b3		add x15 x15 x16
	10498:		00b7a423		sw x11 8 x15
	1049c:		00000513		addi x10 x0 0
	104a0:		00008067		jalr x0 x1 0
	104a4:		14c70793		addi x15 x14 332
	104a8:		14f72423		sw x15 328 x14
	104ac:		fa5ff06f		jal x0 -92
	104b0:		18c7a683		lw x13 396 x15
	104b4:		00170713		addi x14 x14 1
	104b8:		00e7a223		sw x14 4 x15
	104bc:		00c6e633		or x12 x13 x12
	104c0:		18c7a623		sw x12 396 x15
	104c4:		010787b3		add x15 x15 x16
	104c8:		00b7a423		sw x11 8 x15
	104cc:		00000513		addi x10 x0 0
	104d0:		00008067		jalr x0 x1 0
	104d4:		fff00513		addi x10 x0 -1
	104d8:		00008067		jalr x0 x1 0

000104dc <__call_exitprocs>:
	104dc:		fd010113		addi x2 x2 -48
	104e0:		c2818793		addi x15 x3 -984
	104e4:		01812423		sw x24 8 x2
	104e8:		0007ac03		lw x24 0 x15
	104ec:		01312e23		sw x19 28 x2
	104f0:		01412c23		sw x20 24 x2
	104f4:		01512a23		sw x21 20 x2
	104f8:		01612823		sw x22 16 x2
	104fc:		02112623		sw x1 44 x2
	10500:		02812423		sw x8 40 x2
	10504:		02912223		sw x9 36 x2
	10508:		03212023		sw x18 32 x2
	1050c:		01712623		sw x23 12 x2
	10510:		00050a93		addi x21 x10 0
	10514:		00058b13		addi x22 x11 0
	10518:		00100a13		addi x20 x0 1
	1051c:		fff00993		addi x19 x0 -1
	10520:		148c2903		lw x18 328 x24
	10524:		02090863		beq x18 x0 48
	10528:		00492483		lw x9 4 x18
	1052c:		fff48413		addi x8 x9 -1
	10530:		02044263		blt x8 x0 36
	10534:		00249493		slli x9 x9 2
	10538:		009904b3		add x9 x18 x9
	1053c:		040b0463		beq x22 x0 72
	10540:		1044a783		lw x15 260 x9
	10544:		05678063		beq x15 x22 64
	10548:		fff40413		addi x8 x8 -1
	1054c:		ffc48493		addi x9 x9 -4
	10550:		ff3416e3		bne x8 x19 -20
	10554:		02c12083		lw x1 44 x2
	10558:		02812403		lw x8 40 x2
	1055c:		02412483		lw x9 36 x2
	10560:		02012903		lw x18 32 x2
	10564:		01c12983		lw x19 28 x2
	10568:		01812a03		lw x20 24 x2
	1056c:		01412a83		lw x21 20 x2
	10570:		01012b03		lw x22 16 x2
	10574:		00c12b83		lw x23 12 x2
	10578:		00812c03		lw x24 8 x2
	1057c:		03010113		addi x2 x2 48
	10580:		00008067		jalr x0 x1 0
	10584:		00492783		lw x15 4 x18
	10588:		0044a683		lw x13 4 x9
	1058c:		fff78793		addi x15 x15 -1
	10590:		04878a63		beq x15 x8 84
	10594:		0004a223		sw x0 4 x9
	10598:		fa0688e3		beq x13 x0 -80
	1059c:		18892783		lw x15 392 x18
	105a0:		008a1733		sll x14 x20 x8
	105a4:		00492b83		lw x23 4 x18
	105a8:		00f777b3		and x15 x14 x15
	105ac:		00079e63		bne x15 x0 28
	105b0:		000680e7		jalr x1 x13 0
	105b4:		00492783		lw x15 4 x18
	105b8:		f77794e3		bne x15 x23 -152
	105bc:		148c2783		lw x15 328 x24
	105c0:		f92784e3		beq x15 x18 -120
	105c4:		f5dff06f		jal x0 -164
	105c8:		18c92783		lw x15 396 x18
	105cc:		0844a583		lw x11 132 x9
	105d0:		00f77733		and x14 x14 x15
	105d4:		00071c63		bne x14 x0 24
	105d8:		000a8513		addi x10 x21 0
	105dc:		000680e7		jalr x1 x13 0
	105e0:		fd5ff06f		jal x0 -44
	105e4:		00892223		sw x8 4 x18
	105e8:		fb1ff06f		jal x0 -80
	105ec:		00058513		addi x10 x11 0
	105f0:		000680e7		jalr x1 x13 0
	105f4:		fc1ff06f		jal x0 -64

000105f8 <_exit>:
	105f8:		00000593		addi x11 x0 0
	105fc:		00000613		addi x12 x0 0
	10600:		00000693		addi x13 x0 0
	10604:		00000713		addi x14 x0 0
	10608:		00000793		addi x15 x0 0
	1060c:		05d00893		addi x17 x0 93
	10610:		00000073		ecall
	10614:		00054463		blt x10 x0 8
	10618:		0000006f		jal x0 0
	1061c:		ff010113		addi x2 x2 -16
	10620:		00812423		sw x8 8 x2
	10624:		00050413		addi x8 x10 0
	10628:		00112623		sw x1 12 x2
	1062c:		40800433		sub x8 x0 x8
	10630:		00c000ef		jal x1 12 <__errno>
	10634:		00852023		sw x8 0 x10
	10638:		0000006f		jal x0 0

0001063c <__errno>:
	1063c:		c3018793		addi x15 x3 -976
	10640:		0007a503		lw x10 0 x15
	10644:		00008067		jalr x0 x1 0
